; Function Attrs: nounwind uwtable
define i64 @reverse_name(ptr noundef readonly captures(none) %0) local_unnamed_addr #1 {
  %2 = getelementptr inbounds nuw i8, ptr %0, i64 32
  %3 = load i64, ptr %2, align 8
  %4 = inttoptr i64 %3 to ptr
  %5 = tail call ptr @palloc0(i64 noundef 64) #18
  br label %6

6:                                                ; preds = %1, %9
  %indvars.iv = phi i64 [ 0, %1 ], [ %indvars.iv.next, %9 ]
  %7 = getelementptr inbounds nuw i8, ptr %4, i64 %indvars.iv
  %8 = load i8, ptr %7, align 1
  %.not = icmp eq i8 %8, 0
  br i1 %.not, label %.critedge.thread, label %9

9:                                                ; preds = %6
  %indvars.iv.next = add nuw nsw i64 %indvars.iv, 1
  %exitcond.not = icmp eq i64 %indvars.iv.next, 64
  br i1 %exitcond.not, label %.critedge, label %6, !llvm.loop !9

.critedge.thread:                                 ; preds = %6
  %10 = trunc nuw nsw i64 %indvars.iv to i32
  %11 = and i64 %indvars.iv, 4294967295
  %12 = getelementptr inbounds nuw i8, ptr %4, i64 %11
  %13 = load i8, ptr %12, align 1
  %.not17 = icmp eq i8 %13, 0
  br i1 %.not17, label %.critedge, label %15

.critedge:                                        ; preds = %9, %.critedge.thread
  %.020 = phi i32 [ %10, %.critedge.thread ], [ 64, %9 ]
  %14 = add nsw i32 %.020, -1
  br label %15

15:                                               ; preds = %.critedge, %.critedge.thread
  %.1 = phi i32 [ %14, %.critedge ], [ %10, %.critedge.thread ]
  %16 = icmp sgt i32 %.1, -1
  br i1 %16, label %.lr.ph.preheader, label %._crit_edge

.lr.ph.preheader:                                 ; preds = %15
  %17 = zext nneg i32 %.1 to i64
  br label %.lr.ph

.lr.ph:                                           ; preds = %.lr.ph.preheader, %.lr.ph
  %indvars.iv25 = phi i64 [ %17, %.lr.ph.preheader ], [ %indvars.iv.next26, %.lr.ph ]
  %18 = getelementptr inbounds nuw i8, ptr %4, i64 %indvars.iv25
  %19 = load i8, ptr %18, align 1
  %20 = sub nuw nsw i64 %17, %indvars.iv25
  %21 = getelementptr inbounds nuw i8, ptr %5, i64 %20
  store i8 %19, ptr %21, align 1
  %indvars.iv.next26 = add nsw i64 %indvars.iv25, -1
  %.not29 = icmp eq i64 %indvars.iv25, 0
  br i1 %.not29, label %._crit_edge, label %.lr.ph, !llvm.loop !10

._crit_edge:                                      ; preds = %.lr.ph, %15
  %22 = ptrtoint ptr %5 to i64
  ret i64 %22
}